target datalayout = "e-m:e-p270:32:32-p271:32:32-p272:64:64-i64:64-i128:128-f80:128-n8:16:32:64-S128"
target triple = "x86_64-pc-linux-gnu"

%"class.colvarmodule::rvector" = type { double, double, double }
%"class.colvarmodule::quaternion" = type { double, double, double, double }
%"class.colvarmodule::rotation" = type { %"class.colvarmodule::rmatrix", [4 x [4 x double]], [4 x double], [4 x [4 x double]], [4 x [4 x double]], i8, %"class.colvarmodule::quaternion", %"class.colvarmodule::quaternion", ptr }
%"class.colvarmodule::rmatrix" = type { double, double, double, double, double, double, double, double, double }

; Function Attrs: inlinehint mustprogress nounwind uwtable
define linkonce_odr void @_ZN12colvarmodule7rvector3setEddd(ptr noundef nonnull align 8 dereferenceable(24) %0, double noundef %1, double noundef %2, double noundef %3) #5 comdat align 2 {
  %5 = alloca ptr, align 8
  %6 = alloca double, align 8
  %7 = alloca double, align 8
  %8 = alloca double, align 8
  store ptr %0, ptr %5, align 8, !tbaa !4
  store double %1, ptr %6, align 8, !tbaa !38
  store double %2, ptr %7, align 8, !tbaa !38
  store double %3, ptr %8, align 8, !tbaa !38
  %9 = load ptr, ptr %5, align 8
  %10 = load double, ptr %6, align 8, !tbaa !38
  %11 = getelementptr inbounds nuw %"class.colvarmodule::rvector", ptr %9, i32 0, i32 0
  store double %10, ptr %11, align 8, !tbaa !13
  %12 = load double, ptr %7, align 8, !tbaa !38
  %13 = getelementptr inbounds nuw %"class.colvarmodule::rvector", ptr %9, i32 0, i32 1
  store double %12, ptr %13, align 8, !tbaa !16
  %14 = load double, ptr %8, align 8, !tbaa !38
  %15 = getelementptr inbounds nuw %"class.colvarmodule::rvector", ptr %9, i32 0, i32 2
  store double %14, ptr %15, align 8, !tbaa !17
  ret void
}

; Function Attrs: inlinehint mustprogress nounwind uwtable
define linkonce_odr noundef double @_ZN12colvarmodule4sqrtERKd(ptr noundef nonnull align 8 dereferenceable(8) %0) #5 comdat align 2 {
  %2 = alloca ptr, align 8
  store ptr %0, ptr %2, align 8, !tbaa !104
  %3 = load ptr, ptr %2, align 8, !tbaa !104
  %4 = load double, ptr %3, align 8, !tbaa !38
  %5 = call double @sqrt(double noundef %4) #16, !tbaa !145
  ret double %5
}

; Function Attrs: inlinehint mustprogress nounwind uwtable
define linkonce_odr noundef double @_ZNK12colvarmodule7rvector5norm2Ev(ptr noundef nonnull align 8 dereferenceable(24) %0) #5 comdat align 2 {
  %2 = alloca ptr, align 8
  store ptr %0, ptr %2, align 8, !tbaa !4
  %3 = load ptr, ptr %2, align 8
  %4 = getelementptr inbounds nuw %"class.colvarmodule::rvector", ptr %3, i32 0, i32 0
  %5 = load double, ptr %4, align 8, !tbaa !13
  %6 = getelementptr inbounds nuw %"class.colvarmodule::rvector", ptr %3, i32 0, i32 0
  %7 = load double, ptr %6, align 8, !tbaa !13
  %8 = getelementptr inbounds nuw %"class.colvarmodule::rvector", ptr %3, i32 0, i32 1
  %9 = load double, ptr %8, align 8, !tbaa !16
  %10 = getelementptr inbounds nuw %"class.colvarmodule::rvector", ptr %3, i32 0, i32 1
  %11 = load double, ptr %10, align 8, !tbaa !16
  %12 = fmul double %9, %11
  %13 = call double @llvm.fmuladd.f64(double %5, double %7, double %12)
  %14 = getelementptr inbounds nuw %"class.colvarmodule::rvector", ptr %3, i32 0, i32 2
  %15 = load double, ptr %14, align 8, !tbaa !17
  %16 = getelementptr inbounds nuw %"class.colvarmodule::rvector", ptr %3, i32 0, i32 2
  %17 = load double, ptr %16, align 8, !tbaa !17
  %18 = call double @llvm.fmuladd.f64(double %15, double %17, double %13)
  ret double %18
}

; Function Attrs: inlinehint mustprogress nounwind uwtable
define linkonce_odr void @_ZN12colvarmodule10quaternion3setEd(ptr noundef nonnull align 8 dereferenceable(32) %0, double noundef %1) #5 comdat align 2 {
  %3 = alloca ptr, align 8
  %4 = alloca double, align 8
  store ptr %0, ptr %3, align 8, !tbaa !120
  store double %1, ptr %4, align 8, !tbaa !38
  %5 = load ptr, ptr %3, align 8
  %6 = load double, ptr %4, align 8, !tbaa !38
  %7 = getelementptr inbounds nuw %"class.colvarmodule::quaternion", ptr %5, i32 0, i32 3
  store double %6, ptr %7, align 8, !tbaa !126
  %8 = getelementptr inbounds nuw %"class.colvarmodule::quaternion", ptr %5, i32 0, i32 2
  store double %6, ptr %8, align 8, !tbaa !125
  %9 = getelementptr inbounds nuw %"class.colvarmodule::quaternion", ptr %5, i32 0, i32 1
  store double %6, ptr %9, align 8, !tbaa !124
  %10 = getelementptr inbounds nuw %"class.colvarmodule::quaternion", ptr %5, i32 0, i32 0
  store double %6, ptr %10, align 8, !tbaa !122
  ret void
}

; Function Attrs: inlinehint mustprogress uwtable
define linkonce_odr void @_ZdvRKN12colvarmodule7rvectorEd(ptr dead_on_unwind noalias writable sret(%"class.colvarmodule::rvector") align 8 %0, ptr noundef nonnull align 8 dereferenceable(24) %1, double noundef %2) #3 comdat {
  %4 = alloca ptr, align 8
  %5 = alloca double, align 8
  store ptr %1, ptr %4, align 8, !tbaa !4
  store double %2, ptr %5, align 8, !tbaa !38
  %6 = load ptr, ptr %4, align 8, !tbaa !4
  %7 = getelementptr inbounds nuw %"class.colvarmodule::rvector", ptr %6, i32 0, i32 0
  %8 = load double, ptr %7, align 8, !tbaa !13
  %9 = load double, ptr %5, align 8, !tbaa !38
  %10 = fdiv double %8, %9
  %11 = load ptr, ptr %4, align 8, !tbaa !4
  %12 = getelementptr inbounds nuw %"class.colvarmodule::rvector", ptr %11, i32 0, i32 1
  %13 = load double, ptr %12, align 8, !tbaa !16
  %14 = load double, ptr %5, align 8, !tbaa !38
  %15 = fdiv double %13, %14
  %16 = load ptr, ptr %4, align 8, !tbaa !4
  %17 = getelementptr inbounds nuw %"class.colvarmodule::rvector", ptr %16, i32 0, i32 2
  %18 = load double, ptr %17, align 8, !tbaa !17
  %19 = load double, ptr %5, align 8, !tbaa !38
  %20 = fdiv double %18, %19
  call void @_ZN12colvarmodule7rvectorC2Eddd(ptr noundef nonnull align 8 dereferenceable(24) %0, double noundef %10, double noundef %15, double noundef %20)
  ret void
}

; Function Attrs: inlinehint mustprogress uwtable
define linkonce_odr void @_ZN12colvarmodule7rvectorC2Eddd(ptr noundef nonnull align 8 dereferenceable(24) %0, double noundef %1, double noundef %2, double noundef %3) unnamed_addr #3 comdat align 2 {
  %5 = alloca ptr, align 8
  %6 = alloca double, align 8
  %7 = alloca double, align 8
  %8 = alloca double, align 8
  store ptr %0, ptr %5, align 8, !tbaa !4
  store double %1, ptr %6, align 8, !tbaa !38
  store double %2, ptr %7, align 8, !tbaa !38
  store double %3, ptr %8, align 8, !tbaa !38
  %9 = load ptr, ptr %5, align 8
  %10 = load double, ptr %6, align 8, !tbaa !38
  %11 = load double, ptr %7, align 8, !tbaa !38
  %12 = load double, ptr %8, align 8, !tbaa !38
  call void @_ZN12colvarmodule7rvector3setEddd(ptr noundef nonnull align 8 dereferenceable(24) %9, double noundef %10, double noundef %11, double noundef %12)
  ret void
}

; Function Attrs: inlinehint mustprogress uwtable
define linkonce_odr noundef double @_ZNK12colvarmodule7rvector4normEv(ptr noundef nonnull align 8 dereferenceable(24) %0) #3 comdat align 2 {
  %2 = alloca ptr, align 8
  %3 = alloca double, align 8
  store ptr %0, ptr %2, align 8, !tbaa !4
  %4 = load ptr, ptr %2, align 8
  call void @llvm.lifetime.start.p0(i64 8, ptr %3) #16
  %5 = call noundef double @_ZNK12colvarmodule7rvector5norm2Ev(ptr noundef nonnull align 8 dereferenceable(24) %4)
  store double %5, ptr %3, align 8, !tbaa !38
  %6 = call noundef double @_ZN12colvarmodule4sqrtERKd(ptr noundef nonnull align 8 dereferenceable(8) %3)
  call void @llvm.lifetime.end.p0(i64 8, ptr %3) #16
  ret double %6
}

; Function Attrs: inlinehint mustprogress uwtable
define linkonce_odr void @_ZN12colvarmodule10quaternion5resetEv(ptr noundef nonnull align 8 dereferenceable(32) %0) #3 comdat align 2 {
  %2 = alloca ptr, align 8
  store ptr %0, ptr %2, align 8, !tbaa !120
  %3 = load ptr, ptr %2, align 8
  call void @_ZN12colvarmodule10quaternion3setEd(ptr noundef nonnull align 8 dereferenceable(32) %3, double noundef 0.000000e+00)
  ret void
}

; Function Attrs: inlinehint mustprogress nounwind uwtable
define linkonce_odr void @_ZN12colvarmodule7rmatrix5resetEv(ptr noundef nonnull align 8 dereferenceable(72) %0) #5 comdat align 2 {
  %2 = alloca ptr, align 8
  store ptr %0, ptr %2, align 8, !tbaa !133
  %3 = load ptr, ptr %2, align 8
  %4 = getelementptr inbounds nuw %"class.colvarmodule::rmatrix", ptr %3, i32 0, i32 8
  store double 0.000000e+00, ptr %4, align 8, !tbaa !135
  %5 = getelementptr inbounds nuw %"class.colvarmodule::rmatrix", ptr %3, i32 0, i32 7
  store double 0.000000e+00, ptr %5, align 8, !tbaa !136
  %6 = getelementptr inbounds nuw %"class.colvarmodule::rmatrix", ptr %3, i32 0, i32 6
  store double 0.000000e+00, ptr %6, align 8, !tbaa !137
  %7 = getelementptr inbounds nuw %"class.colvarmodule::rmatrix", ptr %3, i32 0, i32 5
  store double 0.000000e+00, ptr %7, align 8, !tbaa !138
  %8 = getelementptr inbounds nuw %"class.colvarmodule::rmatrix", ptr %3, i32 0, i32 4
  store double 0.000000e+00, ptr %8, align 8, !tbaa !139
  %9 = getelementptr inbounds nuw %"class.colvarmodule::rmatrix", ptr %3, i32 0, i32 3
  store double 0.000000e+00, ptr %9, align 8, !tbaa !140
  %10 = getelementptr inbounds nuw %"class.colvarmodule::rmatrix", ptr %3, i32 0, i32 2
  store double 0.000000e+00, ptr %10, align 8, !tbaa !141
  %11 = getelementptr inbounds nuw %"class.colvarmodule::rmatrix", ptr %3, i32 0, i32 1
  store double 0.000000e+00, ptr %11, align 8, !tbaa !142
  %12 = getelementptr inbounds nuw %"class.colvarmodule::rmatrix", ptr %3, i32 0, i32 0
  store double 0.000000e+00, ptr %12, align 8, !tbaa !143
  ret void
}

; Function Attrs: inlinehint mustprogress nounwind uwtable
define linkonce_odr void @_ZN12colvarmodule10quaternionC2Edddd(ptr noundef nonnull align 8 dereferenceable(32) %0, double noundef %1, double noundef %2, double noundef %3, double noundef %4) unnamed_addr #5 comdat align 2 {
  %6 = alloca ptr, align 8
  %7 = alloca double, align 8
  %8 = alloca double, align 8
  %9 = alloca double, align 8
  %10 = alloca double, align 8
  store ptr %0, ptr %6, align 8, !tbaa !120
  store double %1, ptr %7, align 8, !tbaa !38
  store double %2, ptr %8, align 8, !tbaa !38
  store double %3, ptr %9, align 8, !tbaa !38
  store double %4, ptr %10, align 8, !tbaa !38
  %11 = load ptr, ptr %6, align 8
  %12 = getelementptr inbounds nuw %"class.colvarmodule::quaternion", ptr %11, i32 0, i32 0
  %13 = load double, ptr %7, align 8, !tbaa !38
  store double %13, ptr %12, align 8, !tbaa !122
  %14 = getelementptr inbounds nuw %"class.colvarmodule::quaternion", ptr %11, i32 0, i32 1
  %15 = load double, ptr %8, align 8, !tbaa !38
  store double %15, ptr %14, align 8, !tbaa !124
  %16 = getelementptr inbounds nuw %"class.colvarmodule::quaternion", ptr %11, i32 0, i32 2
  %17 = load double, ptr %9, align 8, !tbaa !38
  store double %17, ptr %16, align 8, !tbaa !125
  %18 = getelementptr inbounds nuw %"class.colvarmodule::quaternion", ptr %11, i32 0, i32 3
  %19 = load double, ptr %10, align 8, !tbaa !38
  store double %19, ptr %18, align 8, !tbaa !126
  ret void
}

; Function Attrs: inlinehint mustprogress nounwind uwtable
define linkonce_odr noundef double @_ZN12colvarmodule3cosERKd(ptr noundef nonnull align 8 dereferenceable(8) %0) #5 comdat align 2 {
  %2 = alloca ptr, align 8
  store ptr %0, ptr %2, align 8, !tbaa !104
  %3 = load ptr, ptr %2, align 8, !tbaa !104
  %4 = load double, ptr %3, align 8, !tbaa !38
  %5 = call double @cos(double noundef %4) #16, !tbaa !145
  ret double %5
}

; Function Attrs: inlinehint mustprogress nounwind uwtable
define linkonce_odr noundef double @_ZN12colvarmodule3sinERKd(ptr noundef nonnull align 8 dereferenceable(8) %0) #5 comdat align 2 {
  %2 = alloca ptr, align 8
  store ptr %0, ptr %2, align 8, !tbaa !104
  %3 = load ptr, ptr %2, align 8, !tbaa !104
  %4 = load double, ptr %3, align 8, !tbaa !38
  %5 = call double @sin(double noundef %4) #16, !tbaa !145
  ret double %5
}

; Function Attrs: inlinehint mustprogress uwtable
define linkonce_odr void @_ZNK12colvarmodule7rvector4unitEv(ptr dead_on_unwind noalias writable sret(%"class.colvarmodule::rvector") align 8 %0, ptr noundef nonnull align 8 dereferenceable(24) %1) #3 comdat align 2 {
  %3 = alloca ptr, align 8
  %4 = alloca double, align 8
  %5 = alloca %"class.colvarmodule::rvector", align 8
  store ptr %1, ptr %3, align 8, !tbaa !4
  %6 = load ptr, ptr %3, align 8
  call void @llvm.lifetime.start.p0(i64 8, ptr %4) #16
  %7 = call noundef double @_ZNK12colvarmodule7rvector4normEv(ptr noundef nonnull align 8 dereferenceable(24) %6)
  store double %7, ptr %4, align 8, !tbaa !38
  %8 = load double, ptr %4, align 8, !tbaa !38
  %9 = fcmp ogt double %8, 0.000000e+00
  call void @llvm.lifetime.start.p0(i64 24, ptr %5) #16
  br i1 %9, label %10, label %18

10:                                               ; preds = %2
  %11 = getelementptr inbounds nuw %"class.colvarmodule::rvector", ptr %6, i32 0, i32 0
  %12 = load double, ptr %11, align 8, !tbaa !13
  %13 = getelementptr inbounds nuw %"class.colvarmodule::rvector", ptr %6, i32 0, i32 1
  %14 = load double, ptr %13, align 8, !tbaa !16
  %15 = getelementptr inbounds nuw %"class.colvarmodule::rvector", ptr %6, i32 0, i32 2
  %16 = load double, ptr %15, align 8, !tbaa !17
  call void @_ZN12colvarmodule7rvectorC2Eddd(ptr noundef nonnull align 8 dereferenceable(24) %5, double noundef %12, double noundef %14, double noundef %16)
  %17 = load double, ptr %4, align 8, !tbaa !38
  call void @_ZdvRKN12colvarmodule7rvectorEd(ptr dead_on_unwind writable sret(%"class.colvarmodule::rvector") align 8 %0, ptr noundef nonnull align 8 dereferenceable(24) %5, double noundef %17)
  br label %19

18:                                               ; preds = %2
  call void @_ZN12colvarmodule7rvectorC2Eddd(ptr noundef nonnull align 8 dereferenceable(24) %0, double noundef 1.000000e+00, double noundef 0.000000e+00, double noundef 0.000000e+00)
  br label %19

19:                                               ; preds = %18, %10
  call void @llvm.lifetime.end.p0(i64 24, ptr %5) #16
  call void @llvm.lifetime.end.p0(i64 8, ptr %4) #16
  ret void
}

; Function Attrs: inlinehint mustprogress uwtable
define linkonce_odr void @_ZN12colvarmodule10quaternionC2Ev(ptr noundef nonnull align 8 dereferenceable(32) %0) unnamed_addr #3 comdat align 2 {
  %2 = alloca ptr, align 8
  store ptr %0, ptr %2, align 8, !tbaa !120
  %3 = load ptr, ptr %2, align 8
  call void @_ZN12colvarmodule10quaternion5resetEv(ptr noundef nonnull align 8 dereferenceable(32) %3)
  ret void
}

; Function Attrs: inlinehint mustprogress uwtable
define linkonce_odr void @_ZN12colvarmodule7rmatrixC2Ev(ptr noundef nonnull align 8 dereferenceable(72) %0) unnamed_addr #3 comdat align 2 {
  %2 = alloca ptr, align 8
  store ptr %0, ptr %2, align 8, !tbaa !133
  %3 = load ptr, ptr %2, align 8
  call void @_ZN12colvarmodule7rmatrix5resetEv(ptr noundef nonnull align 8 dereferenceable(72) %3)
  ret void
}

; Function Attrs: mustprogress uwtable
define void @_ZN12colvarmodule8rotationC2EdRKNS_7rvectorE(ptr noundef nonnull align 8 dereferenceable(568) %0, double noundef %1, ptr noundef nonnull align 8 dereferenceable(24) %2) unnamed_addr #0 align 2 {
  %4 = alloca ptr, align 8
  %5 = alloca double, align 8
  %6 = alloca ptr, align 8
  %7 = alloca %"class.colvarmodule::rvector", align 8
  %8 = alloca double, align 8
  %9 = alloca double, align 8
  %10 = alloca %"class.colvarmodule::quaternion", align 8
  %11 = alloca double, align 8
  store ptr %0, ptr %4, align 8, !tbaa !127
  store double %1, ptr %5, align 8, !tbaa !38
  store ptr %2, ptr %6, align 8, !tbaa !4
  %12 = load ptr, ptr %4, align 8
  %13 = getelementptr inbounds nuw %"class.colvarmodule::rotation", ptr %12, i32 0, i32 0
  call void @_ZN12colvarmodule7rmatrixC2Ev(ptr noundef nonnull align 8 dereferenceable(72) %13)
  %14 = getelementptr inbounds nuw %"class.colvarmodule::rotation", ptr %12, i32 0, i32 6
  call void @_ZN12colvarmodule10quaternionC2Ev(ptr noundef nonnull align 8 dereferenceable(32) %14)
  %15 = getelementptr inbounds nuw %"class.colvarmodule::rotation", ptr %12, i32 0, i32 7
  call void @_ZN12colvarmodule10quaternionC2Ev(ptr noundef nonnull align 8 dereferenceable(32) %15)
  %16 = call noundef i32 @_ZN12colvarmodule8rotation4initEv(ptr noundef nonnull align 8 dereferenceable(568) %12)
  call void @llvm.lifetime.start.p0(i64 24, ptr %7) #16
  %17 = load ptr, ptr %6, align 8, !tbaa !4
  call void @_ZNK12colvarmodule7rvector4unitEv(ptr dead_on_unwind writable sret(%"class.colvarmodule::rvector") align 8 %7, ptr noundef nonnull align 8 dereferenceable(24) %17)
  call void @llvm.lifetime.start.p0(i64 8, ptr %8) #16
  call void @llvm.lifetime.start.p0(i64 8, ptr %9) #16
  %18 = load double, ptr %5, align 8, !tbaa !38
  %19 = fdiv double %18, 2.000000e+00
  store double %19, ptr %9, align 8, !tbaa !38
  %20 = call noundef double @_ZN12colvarmodule3sinERKd(ptr noundef nonnull align 8 dereferenceable(8) %9)
  call void @llvm.lifetime.end.p0(i64 8, ptr %9) #16
  store double %20, ptr %8, align 8, !tbaa !38
  call void @llvm.lifetime.start.p0(i64 32, ptr %10) #16
  call void @llvm.lifetime.start.p0(i64 8, ptr %11) #16
  %21 = load double, ptr %5, align 8, !tbaa !38
  %22 = fdiv double %21, 2.000000e+00
  store double %22, ptr %11, align 8, !tbaa !38
  %23 = call noundef double @_ZN12colvarmodule3cosERKd(ptr noundef nonnull align 8 dereferenceable(8) %11)
  %24 = load double, ptr %8, align 8, !tbaa !38
  %25 = getelementptr inbounds nuw %"class.colvarmodule::rvector", ptr %7, i32 0, i32 0
  %26 = load double, ptr %25, align 8, !tbaa !13
  %27 = fmul double %24, %26
  %28 = load double, ptr %8, align 8, !tbaa !38
  %29 = getelementptr inbounds nuw %"class.colvarmodule::rvector", ptr %7, i32 0, i32 1
  %30 = load double, ptr %29, align 8, !tbaa !16
  %31 = fmul double %28, %30
  %32 = load double, ptr %8, align 8, !tbaa !38
  %33 = getelementptr inbounds nuw %"class.colvarmodule::rvector", ptr %7, i32 0, i32 2
  %34 = load double, ptr %33, align 8, !tbaa !17
  %35 = fmul double %32, %34
  call void @_ZN12colvarmodule10quaternionC2Edddd(ptr noundef nonnull align 8 dereferenceable(32) %10, double noundef %23, double noundef %27, double noundef %31, double noundef %35)
  %36 = getelementptr inbounds nuw %"class.colvarmodule::rotation", ptr %12, i32 0, i32 6
  call void @llvm.memcpy.p0.p0.i64(ptr align 8 %36, ptr align 8 %10, i64 32, i1 false), !tbaa.struct !144
  call void @llvm.lifetime.end.p0(i64 8, ptr %11) #16
  call void @llvm.lifetime.end.p0(i64 32, ptr %10) #16
  %37 = getelementptr inbounds nuw %"class.colvarmodule::rotation", ptr %12, i32 0, i32 8
  store ptr null, ptr %37, align 8, !tbaa !132
  call void @llvm.lifetime.end.p0(i64 8, ptr %8) #16
  call void @llvm.lifetime.end.p0(i64 24, ptr %7) #16
  ret void
}