; Function Attrs: mustprogress uwtable
define void @_ZN12colvarmodule8rotationC2EdRKNS_7rvectorE(ptr noundef nonnull writeonly align 8 captures(none) dereferenceable(568) initializes((0, 72), (488, 489), (496, 568)) %0, double noundef %1, ptr noundef nonnull readonly align 8 captures(none) dereferenceable(24) %2) unnamed_addr #0 align 2 {
  tail call void @llvm.memset.p0.i64(ptr noundef nonnull align 8 dereferenceable(72) %0, i8 0, i64 72, i1 false)
  %4 = getelementptr inbounds nuw i8, ptr %0, i64 496
  tail call void @llvm.memset.p0.i64(ptr noundef nonnull align 8 dereferenceable(64) %4, i8 0, i64 64, i1 false)
  %5 = tail call noundef i32 @_ZN12colvarmodule8rotation4initEv(ptr noundef nonnull align 8 dereferenceable(568) %0)
  %6 = load double, ptr %2, align 8, !tbaa !23, !noalias !68
  %7 = getelementptr inbounds nuw i8, ptr %2, i64 8
  %8 = load double, ptr %7, align 8, !tbaa !26, !noalias !68
  %9 = fmul double %8, %8
  %10 = tail call double @llvm.fmuladd.f64(double %6, double %6, double %9)
  %11 = getelementptr inbounds nuw i8, ptr %2, i64 16
  %12 = load double, ptr %11, align 8, !tbaa !27, !noalias !68
  %13 = tail call noundef double @llvm.fmuladd.f64(double %12, double %12, double %10)
  %14 = fcmp ogt double %13, 0.000000e+00
  %sqrt.i.i = tail call double @llvm.sqrt.f64(double %13)
  %15 = fdiv double %6, %sqrt.i.i
  %16 = fdiv double %8, %sqrt.i.i
  %17 = fdiv double %12, %sqrt.i.i
  %.sink4.i = select i1 %14, double %15, double 1.000000e+00
  %.sink3.i = select i1 %14, double %16, double 0.000000e+00
  %.sink.i = select i1 %14, double %17, double 0.000000e+00
  %18 = fmul double %1, 5.000000e-01
  %19 = tail call noundef double @sin(double noundef %18) #20, !tbaa !71
  %20 = tail call noundef double @cos(double noundef %18) #20, !tbaa !71
  %21 = fmul double %19, %.sink4.i
  %22 = fmul double %19, %.sink3.i
  %23 = fmul double %19, %.sink.i
  store double %20, ptr %4, align 8, !tbaa !67
  %.sroa.4.0..sroa_idx = getelementptr inbounds nuw i8, ptr %0, i64 504
  store double %21, ptr %.sroa.4.0..sroa_idx, align 8, !tbaa !67
  %.sroa.5.0..sroa_idx = getelementptr inbounds nuw i8, ptr %0, i64 512
  store double %22, ptr %.sroa.5.0..sroa_idx, align 8, !tbaa !67
  %.sroa.6.0..sroa_idx = getelementptr inbounds nuw i8, ptr %0, i64 520
  store double %23, ptr %.sroa.6.0..sroa_idx, align 8, !tbaa !67
  %24 = getelementptr inbounds nuw i8, ptr %0, i64 560
  store ptr null, ptr %24, align 8, !tbaa !65
  ret void
}